; Function Attrs: mustprogress nofree norecurse nosync nounwind willreturn memory(read, inaccessiblemem: none) uwtable
define hidden noundef zeroext i1 @_ZNK20ParallelScavengeHeap5is_inEPKv(ptr nocapture nonnull readnone align 8 %0, ptr noundef readnone %1) unnamed_addr #3 align 2 {
  %3 = load ptr, ptr @_ZN20ParallelScavengeHeap10_young_genE, align 8
  %4 = getelementptr inbounds i8, ptr %3, i64 24
  %5 = load ptr, ptr %4, align 8
  %6 = getelementptr inbounds i8, ptr %5, i64 32
  %7 = load ptr, ptr %6, align 8
  %.not.i.i = icmp ule ptr %7, %1
  %8 = getelementptr inbounds i8, ptr %5, i64 40
  %9 = load ptr, ptr %8, align 8
  %10 = icmp ugt ptr %9, %1
  %11 = select i1 %.not.i.i, i1 %10, i1 false
  br i1 %11, label %22, label %12

12:                                               ; preds = %2
  %13 = load ptr, ptr @_ZN20ParallelScavengeHeap8_old_genE, align 8
  %14 = getelementptr inbounds i8, ptr %13, i64 8
  %15 = load ptr, ptr %14, align 8
  %16 = getelementptr inbounds i8, ptr %15, i64 32
  %17 = load ptr, ptr %16, align 8
  %.not.i.i2 = icmp ule ptr %17, %1
  %18 = getelementptr inbounds i8, ptr %15, i64 40
  %19 = load ptr, ptr %18, align 8
  %20 = icmp ugt ptr %19, %1
  %21 = select i1 %.not.i.i2, i1 %20, i1 false
  br label %22

22:                                               ; preds = %12, %2
  %23 = phi i1 [ true, %2 ], [ %21, %12 ]
  ret i1 %23
}